Certificate:
    Data:
        Version: 3 (0x2)
        Serial Number: 1 (0x1)
        Signature Algorithm: sha1WithRSAEncryption
        Issuer: C=CA, ST=Ontario, L=Toronto, O=Thin Cat Labs, OU=Security, CN=test.thincatlabs.com/emailAddress=skullybox@gmx.com
        Validity
            Not Before: Jun  7 03:13:10 2017 GMT
            Not After : Jun 12 03:13:10 2018 GMT
        Subject: C=CA, ST=Ontario, O=Thin Cat Labs, CN=test.thincatlabs.com
        Subject Public Key Info:
            Public Key Algorithm: rsaEncryption
            RSA Public Key: (2048 bit)
                Modulus (2048 bit):
                    00:b3:07:03:3c:02:95:59:eb:35:0e:04:66:d2:86:
                    71:11:97:13:c8:fd:18:fe:fd:ab:11:74:32:29:70:
                    24:d6:e8:84:c3:0c:8b:50:6b:c5:43:b6:07:3a:b0:
                    fb:31:f8:2c:33:a7:46:51:4d:38:b5:11:1e:9c:8c:
                    89:f5:e8:d6:c7:02:b6:87:68:30:ce:2d:90:54:5f:
                    2c:5c:2b:1e:ef:a4:fd:b9:6d:41:03:83:a5:da:d7:
                    c7:1b:85:48:ed:e9:53:ec:c0:6b:92:4d:27:42:a0:
                    5f:04:b9:c8:f3:b2:91:cc:80:82:14:87:b2:ef:d0:
                    73:fb:e3:a0:7e:1d:c5:04:67:3f:a7:40:ff:ae:d7:
                    ee:c3:3e:4d:23:99:0e:2e:e0:1e:ef:de:c7:b1:ae:
                    e6:61:e5:87:10:c9:12:f6:3f:5e:df:c6:92:e4:39:
                    5a:ef:5e:d3:d1:3e:ed:43:a2:d7:0f:d6:f3:1d:de:
                    d4:0c:55:bf:92:68:f8:ee:96:90:1b:0e:1e:bf:a0:
                    31:8e:bf:6f:b6:ee:ef:57:e8:9e:54:b3:0a:59:cd:
                    2f:bf:09:7a:de:43:bb:f6:0e:58:7e:e3:17:cf:ab:
                    5e:a3:54:94:1c:a6:30:56:97:57:63:4f:fb:8a:2e:
                    68:4a:ae:f0:ce:b8:48:e8:8e:60:0e:b2:4f:0d:4e:
                    67:eb
                Exponent: 65537 (0x10001)
        X509v3 extensions:
            X509v3 Basic Constraints: 
                CA:FALSE
            Netscape Comment: 
                OpenSSL Generated Certificate
            X509v3 Subject Key Identifier: 
                60:D8:CF:47:0F:06:96:6E:29:E3:5C:C6:FE:5C:CB:C5:B4:CA:72:61
            X509v3 Authority Key Identifier: 
                keyid:75:9B:32:42:8F:2B:2C:34:18:92:11:63:8E:42:73:68:09:8A:55:55

    Signature Algorithm: sha1WithRSAEncryption
        42:f2:7b:b5:ce:a2:5c:87:39:24:28:5e:5f:42:18:46:b0:d0:
        84:43:3a:f8:82:ef:09:63:73:b9:90:6e:21:3f:3e:7a:16:a4:
        fe:7d:9b:12:cf:fc:54:f7:95:93:64:72:4b:40:47:a7:83:da:
        2b:03:f8:e3:52:50:5f:93:f9:ab:96:9b:00:d0:26:bc:83:d7:
        a1:85:13:09:3c:41:7d:8b:fc:ed:bf:16:87:91:26:61:1f:69:
        33:a9:ba:a8:76:a0:45:03:f9:b7:6a:88:23:b0:d2:4c:92:ed:
        4d:9c:e1:4c:ec:16:00:24:fa:7a:46:48:2e:f1:2f:c8:8a:65:
        ce:b9:be:c8:f4:cc:1a:a1:25:2b:f2:cd:40:4a:22:d6:57:af:
        41:fd:b1:a2:77:1d:3e:10:e6:95:77:06:bb:5d:b3:3b:66:67:
        b7:73:69:1e:75:ac:e9:40:15:e6:ed:98:1d:52:c0:15:c0:53:
        80:a1:9a:14:67:04:4a:b2:f3:3d:83:68:9c:1c:dd:0c:a1:fc:
        61:17:98:1b:00:04:9a:69:e7:ff:f1:06:07:bd:d2:f6:f6:b2:
        b5:59:73:8d:24:d6:ed:7a:37:8a:7a:14:36:82:88:2e:2a:35:
        cc:d8:00:34:17:76:fa:7c:7d:10:53:bc:51:00:d2:8f:7c:ca:
        78:b5:23:d4:57:2c:1f:da:79:25:97:71:e0:63:8b:48:5b:43:
        3c:50:64:d1:9f:2d:ef:7b:d2:8f:6e:af:1c:90:2f:cc:c5:af:
        e6:4f:0a:40:6f:4f:3f:fa:f4:b9:18:58:b1:ba:3e:ee:1a:83:
        46:1b:d8:c3:f8:82:3e:96:7a:86:51:ab:51:1c:56:4d:b1:d0:
        a0:ef:2d:7c:e2:78:19:61:27:c2:f8:6d:4e:a9:07:90:da:43:
        ce:b4:dc:a3:de:de:0e:09:86:2d:b3:d9:5d:97:84:e0:8c:6f:
        7c:a0:29:c4:0f:34:fc:20:aa:3a:a1:b0:6e:77:0e:70:05:af:
        78:2a:5d:64:78:78:0b:7c:68:2c:3b:5d:96:ea:53:02:49:ba:
        b7:b3:87:ab:37:75:e6:66:14:21:e9:5d:8f:8a:84:89:7a:22:
        0f:ff:15:6f:28:70:c5:94:c7:13:08:28:98:01:bc:8a:58:3f:
        36:af:d3:10:d5:25:9a:0b:17:7f:a2:fe:0b:db:e7:1f:80:32:
        50:a1:28:e7:5d:f8:18:48:ea:89:cf:fa:42:7c:23:c3:ab:f9:
        94:d0:75:13:e4:80:38:dd:06:80:0a:77:59:c5:b5:08:7f:35:
        88:ba:54:2b:45:92:8e:ec:14:73:f5:4e:67:98:cf:4c:18:68:
        ee:c9:f6:94:06:aa:b8:d9
-----BEGIN CERTIFICATE-----
MIIE6jCCAtKgAwIBAgIBATANBgkqhkiG9w0BAQUFADCBnTELMAkGA1UEBhMCQ0Ex
EDAOBgNVBAgTB09udGFyaW8xEDAOBgNVBAcTB1Rvcm9udG8xFjAUBgNVBAoTDVRo
aW4gQ2F0IExhYnMxETAPBgNVBAsTCFNlY3VyaXR5MR0wGwYDVQQDExR0ZXN0LnRo
aW5jYXRsYWJzLmNvbTEgMB4GCSqGSIb3DQEJARYRc2t1bGx5Ym94QGdteC5jb20w
HhcNMTcwNjA3MDMxMzEwWhcNMTgwNjEyMDMxMzEwWjBWMQswCQYDVQQGEwJDQTEQ
MA4GA1UECBMHT250YXJpbzEWMBQGA1UEChMNVGhpbiBDYXQgTGFiczEdMBsGA1UE
AxMUdGVzdC50aGluY2F0bGFicy5jb20wggEiMA0GCSqGSIb3DQEBAQUAA4IBDwAw
ggEKAoIBAQCzBwM8ApVZ6zUOBGbShnERlxPI/Rj+/asRdDIpcCTW6ITDDItQa8VD
tgc6sPsx+Cwzp0ZRTTi1ER6cjIn16NbHAraHaDDOLZBUXyxcKx7vpP25bUEDg6Xa
18cbhUjt6VPswGuSTSdCoF8EucjzspHMgIIUh7Lv0HP746B+HcUEZz+nQP+u1+7D
Pk0jmQ4u4B7v3sexruZh5YcQyRL2P17fxpLkOVrvXtPRPu1DotcP1vMd3tQMVb+S
aPjulpAbDh6/oDGOv2+27u9X6J5UswpZzS+/CXreQ7v2Dlh+4xfPq16jVJQcpjBW
l1djT/uKLmhKrvDOuEjojmAOsk8NTmfrAgMBAAGjezB5MAkGA1UdEwQCMAAwLAYJ
YIZIAYb4QgENBB8WHU9wZW5TU0wgR2VuZXJhdGVkIENlcnRpZmljYXRlMB0GA1Ud
DgQWBBRg2M9HDwaWbinjXMb+XMvFtMpyYTAfBgNVHSMEGDAWgBR1mzJCjyssNBiS
EWOOQnNoCYpVVTANBgkqhkiG9w0BAQUFAAOCAgEAQvJ7tc6iXIc5JCheX0IYRrDQ
hEM6+ILvCWNzuZBuIT8+ehak/n2bEs/8VPeVk2RyS0BHp4PaKwP441JQX5P5q5ab
ANAmvIPXoYUTCTxBfYv87b8Wh5EmYR9pM6m6qHagRQP5t2qII7DSTJLtTZzhTOwW
ACT6ekZILvEvyIplzrm+yPTMGqElK/LNQEoi1levQf2xoncdPhDmlXcGu12zO2Zn
t3NpHnWs6UAV5u2YHVLAFcBTgKGaFGcESrLzPYNonBzdDKH8YReYGwAEmmnn//EG
B73S9vaytVlzjSTW7Xo3inoUNoKILio1zNgANBd2+nx9EFO8UQDSj3zKeLUj1Fcs
H9p5JZdx4GOLSFtDPFBk0Z8t73vSj26vHJAvzMWv5k8KQG9PP/r0uRhYsbo+7hqD
RhvYw/iCPpZ6hlGrURxWTbHQoO8tfOJ4GWEnwvhtTqkHkNpDzrTco97eDgmGLbPZ
XZeE4IxvfKApxA80/CCqOqGwbncOcAWveCpdZHh4C3xoLDtdlupTAkm6t7OHqzd1
5mYUIeldj4qEiXoiD/8VbyhwxZTHEwgomAG8ilg/Nq/TENUlmgsXf6L+C9vnH4Ay
UKEo5134GEjqic/6Qnwjw6v5lNB1E+SAON0GgAp3WcW1CH81iLpUK0WSjuwUc/VO
Z5jPTBho7sn2lAaquNk=
-----END CERTIFICATE-----
